target datalayout = "e-m:e-p270:32:32-p271:32:32-p272:64:64-i64:64-i128:128-f80:128-n8:16:32:64-S128"
target triple = "x86_64-pc-linux-gnu"

%"class.Imath_3_2::half" = type { i16 }
%"union.Imf_3_4::(anonymous namespace)::bytesUintOrFloat" = type { float }
%union.anon.26 = type { i32 }

@_ZTIN7Iex_3_46ArgExcE = external constant ptr
@.str.10 = private unnamed_addr constant [25 x i8] c"Unknown pixel data type.\00", align 1

; Function Attrs: inlinehint mustprogress nounwind uwtable
define linkonce_odr hidden void @_ZN7Imf_3_49CharPtrIO10writeCharsERPcPKci(ptr noundef nonnull align 8 dereferenceable(8) %0, ptr noundef %1, i32 noundef %2) #7 comdat align 2 {
  %4 = alloca ptr, align 8
  %5 = alloca ptr, align 8
  %6 = alloca i32, align 4
  store ptr %0, ptr %4, align 8, !tbaa !58
  store ptr %1, ptr %5, align 8, !tbaa !10
  store i32 %2, ptr %6, align 4, !tbaa !14
  br label %7

7:                                                ; preds = %11, %3
  %8 = load i32, ptr %6, align 4, !tbaa !14
  %9 = add nsw i32 %8, -1
  store i32 %9, ptr %6, align 4, !tbaa !14
  %10 = icmp ne i32 %8, 0
  br i1 %10, label %11, label %18

11:                                               ; preds = %7
  %12 = load ptr, ptr %5, align 8, !tbaa !10
  %13 = getelementptr inbounds nuw i8, ptr %12, i32 1
  store ptr %13, ptr %5, align 8, !tbaa !10
  %14 = load i8, ptr %12, align 1, !tbaa !85
  %15 = load ptr, ptr %4, align 8, !tbaa !58
  %16 = load ptr, ptr %15, align 8, !tbaa !10
  %17 = getelementptr inbounds nuw i8, ptr %16, i32 1
  store ptr %17, ptr %15, align 8, !tbaa !10
  store i8 %14, ptr %16, align 1, !tbaa !85
  br label %7, !llvm.loop !271

18:                                               ; preds = %7
  ret void
}

; Function Attrs: inlinehint mustprogress nounwind uwtable
define linkonce_odr hidden noundef zeroext i16 @_ZNK9Imath_3_24half4bitsEv(ptr noundef nonnull align 2 dereferenceable(2) %0) #7 comdat align 2 {
  %2 = alloca ptr, align 8
  store ptr %0, ptr %2, align 8, !tbaa !101
  %3 = load ptr, ptr %2, align 8
  %4 = getelementptr inbounds nuw %"class.Imath_3_2::half", ptr %3, i32 0, i32 0
  %5 = load i16, ptr %4, align 2, !tbaa !103
  ret i16 %5
}

; Function Attrs: inlinehint mustprogress uwtable
define linkonce_odr hidden void @_ZN7Imf_3_43Xdr18writeUnsignedCharsINS_9CharPtrIOEPcEEvRT0_PKhi(ptr noundef nonnull align 8 dereferenceable(8) %0, ptr noundef %1, i32 noundef %2) #8 comdat {
  %4 = alloca ptr, align 8
  %5 = alloca ptr, align 8
  %6 = alloca i32, align 4
  store ptr %0, ptr %4, align 8, !tbaa !58
  store ptr %1, ptr %5, align 8, !tbaa !10
  store i32 %2, ptr %6, align 4, !tbaa !14
  %7 = load ptr, ptr %4, align 8, !tbaa !58
  %8 = load ptr, ptr %5, align 8, !tbaa !10
  %9 = load i32, ptr %6, align 4, !tbaa !14
  call void @_ZN7Imf_3_49CharPtrIO10writeCharsERPcPKci(ptr noundef nonnull align 8 dereferenceable(8) %7, ptr noundef %8, i32 noundef %9)
  ret void
}

; Function Attrs: mustprogress uwtable
define linkonce_odr hidden void @_ZN7Imf_3_43Xdr5writeINS_9CharPtrIOEPcEEvRT0_f(ptr noundef nonnull align 8 dereferenceable(8) %0, float noundef %1) #6 comdat {
  %3 = alloca ptr, align 8
  %4 = alloca float, align 4
  %5 = alloca %union.anon.26, align 4
  %6 = alloca [4 x i8], align 1
  store ptr %0, ptr %3, align 8, !tbaa !58
  store float %1, ptr %4, align 4, !tbaa !73
  call void @llvm.lifetime.start.p0(i64 4, ptr %5) #3
  %7 = load float, ptr %4, align 4, !tbaa !73
  store float %7, ptr %5, align 4, !tbaa !85
  call void @llvm.lifetime.start.p0(i64 4, ptr %6) #3
  %8 = load i32, ptr %5, align 4, !tbaa !85
  %9 = trunc i32 %8 to i8
  %10 = getelementptr inbounds [4 x i8], ptr %6, i64 0, i64 0
  store i8 %9, ptr %10, align 1, !tbaa !85
  %11 = load i32, ptr %5, align 4, !tbaa !85
  %12 = lshr i32 %11, 8
  %13 = trunc i32 %12 to i8
  %14 = getelementptr inbounds [4 x i8], ptr %6, i64 0, i64 1
  store i8 %13, ptr %14, align 1, !tbaa !85
  %15 = load i32, ptr %5, align 4, !tbaa !85
  %16 = lshr i32 %15, 16
  %17 = trunc i32 %16 to i8
  %18 = getelementptr inbounds [4 x i8], ptr %6, i64 0, i64 2
  store i8 %17, ptr %18, align 1, !tbaa !85
  %19 = load i32, ptr %5, align 4, !tbaa !85
  %20 = lshr i32 %19, 24
  %21 = trunc i32 %20 to i8
  %22 = getelementptr inbounds [4 x i8], ptr %6, i64 0, i64 3
  store i8 %21, ptr %22, align 1, !tbaa !85
  %23 = load ptr, ptr %3, align 8, !tbaa !58
  %24 = getelementptr inbounds [4 x i8], ptr %6, i64 0, i64 0
  call void @_ZN7Imf_3_43Xdr18writeUnsignedCharsINS_9CharPtrIOEPcEEvRT0_PKhi(ptr noundef nonnull align 8 dereferenceable(8) %23, ptr noundef %24, i32 noundef 4)
  call void @llvm.lifetime.end.p0(i64 4, ptr %6) #3
  call void @llvm.lifetime.end.p0(i64 4, ptr %5) #3
  ret void
}

; Function Attrs: inlinehint mustprogress uwtable
define linkonce_odr hidden void @_ZN7Imf_3_43Xdr5writeINS_9CharPtrIOEPcEEvRT0_N9Imath_3_24halfE(ptr noundef nonnull align 8 dereferenceable(8) %0, i16 %1) #8 comdat {
  %3 = alloca %"class.Imath_3_2::half", align 2
  %4 = alloca ptr, align 8
  %5 = alloca [2 x i8], align 1
  %6 = getelementptr inbounds nuw %"class.Imath_3_2::half", ptr %3, i32 0, i32 0
  store i16 %1, ptr %6, align 2
  store ptr %0, ptr %4, align 8, !tbaa !58
  call void @llvm.lifetime.start.p0(i64 2, ptr %5) #3
  %7 = call noundef zeroext i16 @_ZNK9Imath_3_24half4bitsEv(ptr noundef nonnull align 2 dereferenceable(2) %3) #3
  %8 = trunc i16 %7 to i8
  %9 = getelementptr inbounds [2 x i8], ptr %5, i64 0, i64 0
  store i8 %8, ptr %9, align 1, !tbaa !85
  %10 = call noundef zeroext i16 @_ZNK9Imath_3_24half4bitsEv(ptr noundef nonnull align 2 dereferenceable(2) %3) #3
  %11 = zext i16 %10 to i32
  %12 = ashr i32 %11, 8
  %13 = trunc i32 %12 to i8
  %14 = getelementptr inbounds [2 x i8], ptr %5, i64 0, i64 1
  store i8 %13, ptr %14, align 1, !tbaa !85
  %15 = load ptr, ptr %4, align 8, !tbaa !58
  %16 = getelementptr inbounds [2 x i8], ptr %5, i64 0, i64 0
  call void @_ZN7Imf_3_43Xdr18writeUnsignedCharsINS_9CharPtrIOEPcEEvRT0_PKhi(ptr noundef nonnull align 8 dereferenceable(8) %15, ptr noundef %16, i32 noundef 2)
  call void @llvm.lifetime.end.p0(i64 2, ptr %5) #3
  ret void
}

; Function Attrs: mustprogress uwtable
define linkonce_odr hidden void @_ZN7Imf_3_43Xdr5writeINS_9CharPtrIOEPcEEvRT0_j(ptr noundef nonnull align 8 dereferenceable(8) %0, i32 noundef %1) #6 comdat {
  %3 = alloca ptr, align 8
  %4 = alloca i32, align 4
  %5 = alloca [4 x i8], align 1
  store ptr %0, ptr %3, align 8, !tbaa !58
  store i32 %1, ptr %4, align 4, !tbaa !14
  call void @llvm.lifetime.start.p0(i64 4, ptr %5) #3
  %6 = load i32, ptr %4, align 4, !tbaa !14
  %7 = trunc i32 %6 to i8
  %8 = getelementptr inbounds [4 x i8], ptr %5, i64 0, i64 0
  store i8 %7, ptr %8, align 1, !tbaa !85
  %9 = load i32, ptr %4, align 4, !tbaa !14
  %10 = lshr i32 %9, 8
  %11 = trunc i32 %10 to i8
  %12 = getelementptr inbounds [4 x i8], ptr %5, i64 0, i64 1
  store i8 %11, ptr %12, align 1, !tbaa !85
  %13 = load i32, ptr %4, align 4, !tbaa !14
  %14 = lshr i32 %13, 16
  %15 = trunc i32 %14 to i8
  %16 = getelementptr inbounds [4 x i8], ptr %5, i64 0, i64 2
  store i8 %15, ptr %16, align 1, !tbaa !85
  %17 = load i32, ptr %4, align 4, !tbaa !14
  %18 = lshr i32 %17, 24
  %19 = trunc i32 %18 to i8
  %20 = getelementptr inbounds [4 x i8], ptr %5, i64 0, i64 3
  store i8 %19, ptr %20, align 1, !tbaa !85
  %21 = load ptr, ptr %3, align 8, !tbaa !58
  %22 = getelementptr inbounds [4 x i8], ptr %5, i64 0, i64 0
  call void @_ZN7Imf_3_43Xdr18writeUnsignedCharsINS_9CharPtrIOEPcEEvRT0_PKhi(ptr noundef nonnull align 8 dereferenceable(8) %21, ptr noundef %22, i32 noundef 4)
  call void @llvm.lifetime.end.p0(i64 4, ptr %5) #3
  ret void
}

; Function Attrs: mustprogress uwtable
define void @_ZN7Imf_3_414convertInPlaceERPcRPKcNS_9PixelTypeEm(ptr noundef nonnull align 8 dereferenceable(8) %0, ptr noundef nonnull align 8 dereferenceable(8) %1, i32 noundef %2, i64 noundef %3) #6 personality ptr @__gxx_personality_v0 {
  %5 = alloca ptr, align 8
  %6 = alloca ptr, align 8
  %7 = alloca i32, align 4
  %8 = alloca i64, align 8
  %9 = alloca i64, align 8
  %10 = alloca %"union.Imf_3_4::(anonymous namespace)::bytesUintOrFloat", align 4
  %11 = alloca i64, align 8
  %12 = alloca %"class.Imath_3_2::half", align 2
  %13 = alloca i64, align 8
  %14 = alloca %"union.Imf_3_4::(anonymous namespace)::bytesUintOrFloat", align 4
  %15 = alloca ptr, align 8
  %16 = alloca i32, align 4
  store ptr %0, ptr %5, align 8, !tbaa !58
  store ptr %1, ptr %6, align 8, !tbaa !58
  store i32 %2, ptr %7, align 4, !tbaa !12
  store i64 %3, ptr %8, align 8, !tbaa !34
  %17 = load i32, ptr %7, align 4, !tbaa !12
  switch i32 %17, label %73 [
    i32 0, label %18
    i32 1, label %36
    i32 2, label %55
  ]

18:                                               ; preds = %4
  call void @llvm.lifetime.start.p0(i64 8, ptr %9) #3
  store i64 0, ptr %9, align 8, !tbaa !34
  br label %19

19:                                               ; preds = %32, %18
  %20 = load i64, ptr %9, align 8, !tbaa !34
  %21 = load i64, ptr %8, align 8, !tbaa !34
  %22 = icmp ult i64 %20, %21
  br i1 %22, label %24, label %23

23:                                               ; preds = %19
  call void @llvm.lifetime.end.p0(i64 8, ptr %9) #3
  br label %35

24:                                               ; preds = %19
  call void @llvm.lifetime.start.p0(i64 4, ptr %10) #3
  %25 = load ptr, ptr %6, align 8, !tbaa !58
  %26 = load ptr, ptr %25, align 8, !tbaa !10
  call void @llvm.memcpy.p0.p0.i64(ptr align 4 %10, ptr align 1 %26, i64 4, i1 false), !tbaa.struct !156
  %27 = load ptr, ptr %5, align 8, !tbaa !58
  %28 = load i32, ptr %10, align 4, !tbaa !85
  call void @_ZN7Imf_3_43Xdr5writeINS_9CharPtrIOEPcEEvRT0_j(ptr noundef nonnull align 8 dereferenceable(8) %27, i32 noundef %28)
  %29 = load ptr, ptr %6, align 8, !tbaa !58
  %30 = load ptr, ptr %29, align 8, !tbaa !10
  %31 = getelementptr inbounds nuw i8, ptr %30, i64 4
  store ptr %31, ptr %29, align 8, !tbaa !10
  call void @llvm.lifetime.end.p0(i64 4, ptr %10) #3
  br label %32

32:                                               ; preds = %24
  %33 = load i64, ptr %9, align 8, !tbaa !34
  %34 = add i64 %33, 1
  store i64 %34, ptr %9, align 8, !tbaa !34
  br label %19, !llvm.loop !157

35:                                               ; preds = %23
  br label %80

36:                                               ; preds = %4
  call void @llvm.lifetime.start.p0(i64 8, ptr %11) #3
  store i64 0, ptr %11, align 8, !tbaa !34
  br label %37

37:                                               ; preds = %51, %36
  %38 = load i64, ptr %11, align 8, !tbaa !34
  %39 = load i64, ptr %8, align 8, !tbaa !34
  %40 = icmp ult i64 %38, %39
  br i1 %40, label %42, label %41

41:                                               ; preds = %37
  call void @llvm.lifetime.end.p0(i64 8, ptr %11) #3
  br label %54

42:                                               ; preds = %37
  %43 = load ptr, ptr %5, align 8, !tbaa !58
  %44 = load ptr, ptr %6, align 8, !tbaa !58
  %45 = load ptr, ptr %44, align 8, !tbaa !10
  call void @llvm.memcpy.p0.p0.i64(ptr align 2 %12, ptr align 2 %45, i64 2, i1 false), !tbaa.struct !69
  %46 = getelementptr inbounds nuw %"class.Imath_3_2::half", ptr %12, i32 0, i32 0
  %47 = load i16, ptr %46, align 2
  call void @_ZN7Imf_3_43Xdr5writeINS_9CharPtrIOEPcEEvRT0_N9Imath_3_24halfE(ptr noundef nonnull align 8 dereferenceable(8) %43, i16 %47)
  %48 = load ptr, ptr %6, align 8, !tbaa !58
  %49 = load ptr, ptr %48, align 8, !tbaa !10
  %50 = getelementptr inbounds nuw i8, ptr %49, i64 2
  store ptr %50, ptr %48, align 8, !tbaa !10
  br label %51

51:                                               ; preds = %42
  %52 = load i64, ptr %11, align 8, !tbaa !34
  %53 = add i64 %52, 1
  store i64 %53, ptr %11, align 8, !tbaa !34
  br label %37, !llvm.loop !158

54:                                               ; preds = %41
  br label %80

55:                                               ; preds = %4
  call void @llvm.lifetime.start.p0(i64 8, ptr %13) #3
  store i64 0, ptr %13, align 8, !tbaa !34
  br label %56

56:                                               ; preds = %69, %55
  %57 = load i64, ptr %13, align 8, !tbaa !34
  %58 = load i64, ptr %8, align 8, !tbaa !34
  %59 = icmp ult i64 %57, %58
  br i1 %59, label %61, label %60

60:                                               ; preds = %56
  call void @llvm.lifetime.end.p0(i64 8, ptr %13) #3
  br label %72

61:                                               ; preds = %56
  call void @llvm.lifetime.start.p0(i64 4, ptr %14) #3
  %62 = load ptr, ptr %6, align 8, !tbaa !58
  %63 = load ptr, ptr %62, align 8, !tbaa !10
  call void @llvm.memcpy.p0.p0.i64(ptr align 4 %14, ptr align 1 %63, i64 4, i1 false), !tbaa.struct !156
  %64 = load ptr, ptr %5, align 8, !tbaa !58
  %65 = load float, ptr %14, align 4, !tbaa !85
  call void @_ZN7Imf_3_43Xdr5writeINS_9CharPtrIOEPcEEvRT0_f(ptr noundef nonnull align 8 dereferenceable(8) %64, float noundef %65)
  %66 = load ptr, ptr %6, align 8, !tbaa !58
  %67 = load ptr, ptr %66, align 8, !tbaa !10
  %68 = getelementptr inbounds nuw i8, ptr %67, i64 4
  store ptr %68, ptr %66, align 8, !tbaa !10
  call void @llvm.lifetime.end.p0(i64 4, ptr %14) #3
  br label %69

69:                                               ; preds = %61
  %70 = load i64, ptr %13, align 8, !tbaa !34
  %71 = add i64 %70, 1
  store i64 %71, ptr %13, align 8, !tbaa !34
  br label %56, !llvm.loop !159

72:                                               ; preds = %60
  br label %80

73:                                               ; preds = %4
  %74 = call ptr @__cxa_allocate_exception(i64 72) #3
  invoke void @_ZN7Iex_3_46ArgExcC1EPKc(ptr noundef nonnull align 8 dereferenceable(72) %74, ptr noundef @.str.10)
          to label %75 unwind label %76

75:                                               ; preds = %73
  call void @__cxa_throw(ptr %74, ptr @_ZTIN7Iex_3_46ArgExcE, ptr @_ZN7Iex_3_46ArgExcD1Ev) #19
  unreachable

76:                                               ; preds = %73
  %77 = landingpad { ptr, i32 }
          cleanup
  %78 = extractvalue { ptr, i32 } %77, 0
  store ptr %78, ptr %15, align 8
  %79 = extractvalue { ptr, i32 } %77, 1
  store i32 %79, ptr %16, align 4
  call void @__cxa_free_exception(ptr %74) #3
  br label %81

80:                                               ; preds = %72, %54, %35
  ret void

81:                                               ; preds = %76
  %82 = load ptr, ptr %15, align 8
  %83 = load i32, ptr %16, align 4
  %84 = insertvalue { ptr, i32 } poison, ptr %82, 0
  %85 = insertvalue { ptr, i32 } %84, i32 %83, 1
  resume { ptr, i32 } %85
}