; Function Attrs: mustprogress uwtable
define void @_ZN7Imf_3_414convertInPlaceERPcRPKcNS_9PixelTypeEm(ptr noundef nonnull align 8 captures(none) dereferenceable(8) %0, ptr noundef nonnull align 8 captures(none) dereferenceable(8) %1, i32 noundef %2, i64 noundef %3) local_unnamed_addr #5 personality ptr @__gxx_personality_v0 {
  %5 = alloca [4 x i8], align 1
  %6 = alloca [2 x i8], align 1
  %7 = alloca [4 x i8], align 1
  switch i32 %2, label %62 [
    i32 0, label %.preheader
    i32 1, label %.preheader33
    i32 2, label %.preheader35
  ]

.preheader35:                                     ; preds = %4
  %.not = icmp eq i64 %3, 0
  br i1 %.not, label %.loopexit, label %.lr.ph

.lr.ph:                                           ; preds = %.preheader35
  %8 = getelementptr inbounds nuw i8, ptr %5, i64 1
  %9 = getelementptr inbounds nuw i8, ptr %5, i64 2
  %10 = getelementptr inbounds nuw i8, ptr %5, i64 3
  %.pre = load ptr, ptr %1, align 8, !tbaa !45
  br label %45

.preheader33:                                     ; preds = %4
  %.not42 = icmp eq i64 %3, 0
  br i1 %.not42, label %.loopexit, label %.lr.ph39

.lr.ph39:                                         ; preds = %.preheader33
  %11 = getelementptr inbounds nuw i8, ptr %6, i64 1
  %.pre48 = load ptr, ptr %1, align 8, !tbaa !45
  br label %32

.preheader:                                       ; preds = %4
  %.not43 = icmp eq i64 %3, 0
  br i1 %.not43, label %.loopexit, label %.lr.ph41

.lr.ph41:                                         ; preds = %.preheader
  %12 = getelementptr inbounds nuw i8, ptr %7, i64 1
  %13 = getelementptr inbounds nuw i8, ptr %7, i64 2
  %14 = getelementptr inbounds nuw i8, ptr %7, i64 3
  %.pre49 = load ptr, ptr %1, align 8, !tbaa !45
  br label %15

15:                                               ; preds = %.lr.ph41, %_ZN7Imf_3_43Xdr5writeINS_9CharPtrIOEPcEEvRT0_j.exit
  %16 = phi ptr [ %.pre49, %.lr.ph41 ], [ %30, %_ZN7Imf_3_43Xdr5writeINS_9CharPtrIOEPcEEvRT0_j.exit ]
  %.040 = phi i64 [ 0, %.lr.ph41 ], [ %31, %_ZN7Imf_3_43Xdr5writeINS_9CharPtrIOEPcEEvRT0_j.exit ]
  %.sroa.06.0.copyload = load i32, ptr %16, align 1, !tbaa !47
  call void @llvm.lifetime.start.p0(i64 4, ptr nonnull %7) #20
  %17 = trunc i32 %.sroa.06.0.copyload to i8
  store i8 %17, ptr %7, align 1, !tbaa !47
  %18 = lshr i32 %.sroa.06.0.copyload, 8
  %19 = trunc i32 %18 to i8
  store i8 %19, ptr %12, align 1, !tbaa !47
  %20 = lshr i32 %.sroa.06.0.copyload, 16
  %21 = trunc i32 %20 to i8
  store i8 %21, ptr %13, align 1, !tbaa !47
  %22 = lshr i32 %.sroa.06.0.copyload, 24
  %23 = trunc nuw i32 %22 to i8
  store i8 %23, ptr %14, align 1, !tbaa !47
  br label %.lr.ph.i.i.i

.lr.ph.i.i.i:                                     ; preds = %.lr.ph.i.i.i, %15
  %.05.i.i.i = phi i32 [ %24, %.lr.ph.i.i.i ], [ 4, %15 ]
  %.024.i.i.i = phi ptr [ %25, %.lr.ph.i.i.i ], [ %7, %15 ]
  %24 = add nsw i32 %.05.i.i.i, -1
  %25 = getelementptr inbounds nuw i8, ptr %.024.i.i.i, i64 1
  %26 = load i8, ptr %.024.i.i.i, align 1, !tbaa !47
  %27 = load ptr, ptr %0, align 8, !tbaa !45
  %28 = getelementptr inbounds nuw i8, ptr %27, i64 1
  store ptr %28, ptr %0, align 8, !tbaa !45
  store i8 %26, ptr %27, align 1, !tbaa !47
  %.not.i.i.i = icmp eq i32 %24, 0
  br i1 %.not.i.i.i, label %_ZN7Imf_3_43Xdr5writeINS_9CharPtrIOEPcEEvRT0_j.exit, label %.lr.ph.i.i.i, !llvm.loop !118

_ZN7Imf_3_43Xdr5writeINS_9CharPtrIOEPcEEvRT0_j.exit: ; preds = %.lr.ph.i.i.i
  call void @llvm.lifetime.end.p0(i64 4, ptr nonnull %7) #20
  %29 = load ptr, ptr %1, align 8, !tbaa !45
  %30 = getelementptr inbounds nuw i8, ptr %29, i64 4
  store ptr %30, ptr %1, align 8, !tbaa !45
  %31 = add nuw i64 %.040, 1
  %exitcond47.not = icmp eq i64 %31, %3
  br i1 %exitcond47.not, label %.loopexit, label %15, !llvm.loop !119

32:                                               ; preds = %.lr.ph39, %_ZN7Imf_3_43Xdr5writeINS_9CharPtrIOEPcEEvRT0_N9Imath_3_24halfE.exit
  %33 = phi ptr [ %.pre48, %.lr.ph39 ], [ %43, %_ZN7Imf_3_43Xdr5writeINS_9CharPtrIOEPcEEvRT0_N9Imath_3_24halfE.exit ]
  %.02238 = phi i64 [ 0, %.lr.ph39 ], [ %44, %_ZN7Imf_3_43Xdr5writeINS_9CharPtrIOEPcEEvRT0_N9Imath_3_24halfE.exit ]
  %.sroa.03.0.copyload = load i16, ptr %33, align 2, !tbaa !39
  call void @llvm.lifetime.start.p0(i64 2, ptr nonnull %6) #20
  %34 = trunc i16 %.sroa.03.0.copyload to i8
  store i8 %34, ptr %6, align 1, !tbaa !47
  %35 = lshr i16 %.sroa.03.0.copyload, 8
  %36 = trunc nuw i16 %35 to i8
  store i8 %36, ptr %11, align 1, !tbaa !47
  br label %.lr.ph.i.i.i24

.lr.ph.i.i.i24:                                   ; preds = %.lr.ph.i.i.i24, %32
  %.05.i.i.i25 = phi i32 [ %37, %.lr.ph.i.i.i24 ], [ 2, %32 ]
  %.024.i.i.i26 = phi ptr [ %38, %.lr.ph.i.i.i24 ], [ %6, %32 ]
  %37 = add nsw i32 %.05.i.i.i25, -1
  %38 = getelementptr inbounds nuw i8, ptr %.024.i.i.i26, i64 1
  %39 = load i8, ptr %.024.i.i.i26, align 1, !tbaa !47
  %40 = load ptr, ptr %0, align 8, !tbaa !45
  %41 = getelementptr inbounds nuw i8, ptr %40, i64 1
  store ptr %41, ptr %0, align 8, !tbaa !45
  store i8 %39, ptr %40, align 1, !tbaa !47
  %.not.i.i.i27 = icmp eq i32 %37, 0
  br i1 %.not.i.i.i27, label %_ZN7Imf_3_43Xdr5writeINS_9CharPtrIOEPcEEvRT0_N9Imath_3_24halfE.exit, label %.lr.ph.i.i.i24, !llvm.loop !118

_ZN7Imf_3_43Xdr5writeINS_9CharPtrIOEPcEEvRT0_N9Imath_3_24halfE.exit: ; preds = %.lr.ph.i.i.i24
  call void @llvm.lifetime.end.p0(i64 2, ptr nonnull %6) #20
  %42 = load ptr, ptr %1, align 8, !tbaa !45
  %43 = getelementptr inbounds nuw i8, ptr %42, i64 2
  store ptr %43, ptr %1, align 8, !tbaa !45
  %44 = add nuw i64 %.02238, 1
  %exitcond46.not = icmp eq i64 %44, %3
  br i1 %exitcond46.not, label %.loopexit, label %32, !llvm.loop !120

45:                                               ; preds = %.lr.ph, %_ZN7Imf_3_43Xdr5writeINS_9CharPtrIOEPcEEvRT0_f.exit
  %46 = phi ptr [ %.pre, %.lr.ph ], [ %60, %_ZN7Imf_3_43Xdr5writeINS_9CharPtrIOEPcEEvRT0_f.exit ]
  %.02337 = phi i64 [ 0, %.lr.ph ], [ %61, %_ZN7Imf_3_43Xdr5writeINS_9CharPtrIOEPcEEvRT0_f.exit ]
  %.sroa.0.0.copyload32 = load i32, ptr %46, align 1, !tbaa !47
  call void @llvm.lifetime.start.p0(i64 4, ptr nonnull %5) #20
  %47 = trunc i32 %.sroa.0.0.copyload32 to i8
  store i8 %47, ptr %5, align 1, !tbaa !47
  %48 = lshr i32 %.sroa.0.0.copyload32, 8
  %49 = trunc i32 %48 to i8
  store i8 %49, ptr %8, align 1, !tbaa !47
  %50 = lshr i32 %.sroa.0.0.copyload32, 16
  %51 = trunc i32 %50 to i8
  store i8 %51, ptr %9, align 1, !tbaa !47
  %52 = lshr i32 %.sroa.0.0.copyload32, 24
  %53 = trunc nuw i32 %52 to i8
  store i8 %53, ptr %10, align 1, !tbaa !47
  br label %.lr.ph.i.i.i28

.lr.ph.i.i.i28:                                   ; preds = %.lr.ph.i.i.i28, %45
  %.05.i.i.i29 = phi i32 [ %54, %.lr.ph.i.i.i28 ], [ 4, %45 ]
  %.024.i.i.i30 = phi ptr [ %55, %.lr.ph.i.i.i28 ], [ %5, %45 ]
  %54 = add nsw i32 %.05.i.i.i29, -1
  %55 = getelementptr inbounds nuw i8, ptr %.024.i.i.i30, i64 1
  %56 = load i8, ptr %.024.i.i.i30, align 1, !tbaa !47
  %57 = load ptr, ptr %0, align 8, !tbaa !45
  %58 = getelementptr inbounds nuw i8, ptr %57, i64 1
  store ptr %58, ptr %0, align 8, !tbaa !45
  store i8 %56, ptr %57, align 1, !tbaa !47
  %.not.i.i.i31 = icmp eq i32 %54, 0
  br i1 %.not.i.i.i31, label %_ZN7Imf_3_43Xdr5writeINS_9CharPtrIOEPcEEvRT0_f.exit, label %.lr.ph.i.i.i28, !llvm.loop !118

_ZN7Imf_3_43Xdr5writeINS_9CharPtrIOEPcEEvRT0_f.exit: ; preds = %.lr.ph.i.i.i28
  call void @llvm.lifetime.end.p0(i64 4, ptr nonnull %5) #20
  %59 = load ptr, ptr %1, align 8, !tbaa !45
  %60 = getelementptr inbounds nuw i8, ptr %59, i64 4
  store ptr %60, ptr %1, align 8, !tbaa !45
  %61 = add nuw i64 %.02337, 1
  %exitcond.not = icmp eq i64 %61, %3
  br i1 %exitcond.not, label %.loopexit, label %45, !llvm.loop !121

62:                                               ; preds = %4
  %63 = tail call ptr @__cxa_allocate_exception(i64 72) #20
  invoke void @_ZN7Iex_3_46ArgExcC1EPKc(ptr noundef nonnull align 8 dereferenceable(72) %63, ptr noundef nonnull @.str.10)
          to label %64 unwind label %65

64:                                               ; preds = %62
  tail call void @__cxa_throw(ptr nonnull %63, ptr nonnull @_ZTIN7Iex_3_46ArgExcE, ptr nonnull @_ZN7Iex_3_46ArgExcD1Ev) #21
  unreachable

65:                                               ; preds = %62
  %66 = landingpad { ptr, i32 }
          cleanup
  tail call void @__cxa_free_exception(ptr nonnull %63) #20
  resume { ptr, i32 } %66

.loopexit:                                        ; preds = %_ZN7Imf_3_43Xdr5writeINS_9CharPtrIOEPcEEvRT0_f.exit, %_ZN7Imf_3_43Xdr5writeINS_9CharPtrIOEPcEEvRT0_N9Imath_3_24halfE.exit, %_ZN7Imf_3_43Xdr5writeINS_9CharPtrIOEPcEEvRT0_j.exit, %.preheader35, %.preheader33, %.preheader
  ret void
}